Certificate:
    Data:
        Version: 3 (0x2)
        Serial Number: 1 (0x1)
    Signature Algorithm: sha256WithRSAEncryption
        Issuer: CN=huanglei
        Validity
            Not Before: May 17 15:08:57 2017 GMT
            Not After : May 15 15:08:57 2027 GMT
        Subject: CN=server
        Subject Public Key Info:
            Public Key Algorithm: rsaEncryption
                Public-Key: (1024 bit)
                Modulus:
                    00:e0:93:a2:03:fe:c9:8b:94:9e:66:ba:35:6b:31:
                    34:17:55:4d:a4:4f:a6:45:83:d7:7a:d6:0b:82:11:
                    d5:fb:42:c1:08:c9:c2:6a:26:b7:40:54:2a:bb:ea:
                    67:d4:4b:aa:54:d4:85:99:47:76:5d:d8:1e:55:05:
                    fd:78:37:04:55:02:e3:f2:c5:d3:f3:d1:48:a2:a3:
                    6d:bd:de:bd:25:95:7c:40:67:69:da:ac:9c:00:f7:
                    77:12:37:57:cd:b4:42:3f:d6:87:e6:bd:33:5f:7f:
                    4b:0a:61:0d:0a:ea:dd:84:f0:79:b8:80:ce:f7:7b:
                    49:7e:da:16:43:7a:51:7c:41
                Exponent: 65537 (0x10001)
        X509v3 extensions:
            X509v3 Basic Constraints: 
                CA:FALSE
            X509v3 Subject Key Identifier: 
                95:0F:8B:3F:8A:3E:F5:C6:6C:FF:87:86:8C:CD:4F:5E:0C:99:E4:16
            X509v3 Authority Key Identifier: 
                keyid:CC:16:87:49:36:F5:F8:08:D9:61:A9:F0:2D:BB:1E:31:AC:90:89:15
                DirName:/CN=huanglei
                serial:DE:7A:D7:A4:61:B6:F3:0E

            X509v3 Extended Key Usage: 
                TLS Web Server Authentication
            X509v3 Key Usage: 
                Digital Signature, Key Encipherment
    Signature Algorithm: sha256WithRSAEncryption
         d4:9f:06:93:43:a7:d6:b9:38:27:4d:35:15:07:58:f5:74:0d:
         22:65:12:51:21:ee:78:5b:49:e2:96:44:26:1e:2a:e3:6f:40:
         3f:90:ec:5a:b1:3c:cb:dc:41:a6:45:ff:53:4e:72:1c:6d:15:
         80:29:ad:93:47:b6:97:a1:ba:61:f9:a9:96:37:fc:c8:19:6c:
         4c:4d:0b:77:44:4f:6a:be:d9:98:58:a2:28:53:35:e5:75:08:
         d5:ce:04:ab:93:9b:15:20:18:15:0f:26:1a:dc:b0:86:63:e1:
         8f:f3:bc:52:b0:b4:59:f5:60:9f:28:ce:0d:bb:40:06:d0:78:
         ec:ba
-----BEGIN CERTIFICATE-----
MIICLzCCAZigAwIBAgIBATANBgkqhkiG9w0BAQsFADATMREwDwYDVQQDDAhodWFu
Z2xlaTAeFw0xNzA1MTcxNTA4NTdaFw0yNzA1MTUxNTA4NTdaMBExDzANBgNVBAMM
BnNlcnZlcjCBnzANBgkqhkiG9w0BAQEFAAOBjQAwgYkCgYEA4JOiA/7Ji5SeZro1
azE0F1VNpE+mRYPXetYLghHV+0LBCMnCaia3QFQqu+pn1EuqVNSFmUd2XdgeVQX9
eDcEVQLj8sXT89FIoqNtvd69JZV8QGdp2qycAPd3EjdXzbRCP9aH5r0zX39LCmEN
CurdhPB5uIDO93tJftoWQ3pRfEECAwEAAaOBlDCBkTAJBgNVHRMEAjAAMB0GA1Ud
DgQWBBSVD4s/ij71xmz/h4aMzU9eDJnkFjBDBgNVHSMEPDA6gBTMFodJNvX4CNlh
qfAtux4xrJCJFaEXpBUwEzERMA8GA1UEAwwIaHVhbmdsZWmCCQDeetekYbbzDjAT
BgNVHSUEDDAKBggrBgEFBQcDATALBgNVHQ8EBAMCBaAwDQYJKoZIhvcNAQELBQAD
gYEA1J8Gk0On1rk4J001FQdY9XQNImUSUSHueFtJ4pZEJh4q429AP5DsWrE8y9xB
pkX/U05yHG0VgCmtk0e2l6G6Yfmpljf8yBlsTE0Ld0RPar7ZmFiiKFM15XUI1c4E
q5ObFSAYFQ8mGtywhmPhj/O8UrC0WfVgnyjODbtABtB47Lo=
-----END CERTIFICATE-----
